; Function Attrs: mustprogress uwtable
define void @_ZN20RasterTreeWidgetItem20updateVisibilityIconEb(ptr noundef nonnull align 8 dereferenceable(64) %0, i1 noundef zeroext %1) local_unnamed_addr #9 align 2 personality ptr @__gxx_personality_v0 {
  %3 = alloca %class.QVariant, align 8
  %4 = alloca %class.QVariant, align 8
  %5 = alloca %class.QIcon, align 8
  %6 = alloca %class.QString, align 8
  %7 = alloca %class.QIcon, align 8
  %8 = alloca %class.QString, align 8
  br i1 %1, label %9, label %25

9:                                                ; preds = %2
  %10 = tail call noundef ptr @_ZN7QString16fromAscii_helperEPKci(ptr noundef nonnull @.str.142, i32 noundef 15)
  store ptr %10, ptr %6, align 8
  invoke void @_ZN5QIconC1ERK7QString(ptr noundef nonnull align 8 dereferenceable(8) %5, ptr noundef nonnull align 8 dereferenceable(8) %6)
          to label %11 unwind label %21

11:                                               ; preds = %9
  call void @llvm.lifetime.start.p0(i64 16, ptr nonnull %4)
  invoke void @_ZNK5QIconcv8QVariantEv(ptr dead_on_unwind nonnull writable sret(%class.QVariant) align 8 %4, ptr noundef nonnull align 8 dereferenceable(8) %5)
          to label %.noexc unwind label %23

.noexc:                                           ; preds = %11
  %12 = load ptr, ptr %0, align 8
  %13 = getelementptr inbounds i8, ptr %12, i64 32
  %14 = load ptr, ptr %13, align 8
  invoke void %14(ptr noundef nonnull align 8 dereferenceable(60) %0, i32 noundef 0, i32 noundef 1, ptr noundef nonnull align 8 dereferenceable(16) %4)
          to label %17 unwind label %15

15:                                               ; preds = %.noexc
  %16 = landingpad { ptr, i32 }
          cleanup
  call void @_ZN8QVariantD1Ev(ptr noundef nonnull align 8 dereferenceable(16) %4) #22
  br label %.body

17:                                               ; preds = %.noexc
  call void @_ZN8QVariantD1Ev(ptr noundef nonnull align 8 dereferenceable(16) %4) #22
  call void @llvm.lifetime.end.p0(i64 16, ptr nonnull %4)
  call void @_ZN5QIconD1Ev(ptr noundef nonnull align 8 dereferenceable(8) %5) #22
  %18 = load ptr, ptr %6, align 8
  %19 = load atomic i32, ptr %18 monotonic, align 4
  switch i32 %19, label %_ZN9QtPrivate8RefCount5derefEv.exit.i [
    i32 0, label %_ZN7QStringD2Ev.exit.sink.split
    i32 -1, label %_ZN7QStringD2Ev.exit
  ]

_ZN9QtPrivate8RefCount5derefEv.exit.i:            ; preds = %17
  %20 = atomicrmw sub ptr %18, i32 1 seq_cst, align 4
  %.not.i = icmp eq i32 %20, 1
  br i1 %.not.i, label %_ZN9QtPrivate8RefCount5derefEv.exit._ZN9QtPrivate8RefCount5derefEv.exit.thread2_crit_edge.i, label %_ZN7QStringD2Ev.exit

_ZN9QtPrivate8RefCount5derefEv.exit._ZN9QtPrivate8RefCount5derefEv.exit.thread2_crit_edge.i: ; preds = %_ZN9QtPrivate8RefCount5derefEv.exit.i
  %.pre.i = load ptr, ptr %6, align 8
  br label %_ZN7QStringD2Ev.exit.sink.split

21:                                               ; preds = %9
  %22 = landingpad { ptr, i32 }
          cleanup
  br label %41

23:                                               ; preds = %11
  %24 = landingpad { ptr, i32 }
          cleanup
  br label %.body

.body:                                            ; preds = %15, %23
  %eh.lpad-body = phi { ptr, i32 } [ %24, %23 ], [ %16, %15 ]
  call void @_ZN5QIconD1Ev(ptr noundef nonnull align 8 dereferenceable(8) %5) #22
  br label %41

25:                                               ; preds = %2
  %26 = tail call noundef ptr @_ZN7QString16fromAscii_helperEPKci(ptr noundef nonnull @.str.143, i32 noundef 17)
  store ptr %26, ptr %8, align 8
  invoke void @_ZN5QIconC1ERK7QString(ptr noundef nonnull align 8 dereferenceable(8) %7, ptr noundef nonnull align 8 dereferenceable(8) %8)
          to label %27 unwind label %37

27:                                               ; preds = %25
  call void @llvm.lifetime.start.p0(i64 16, ptr nonnull %3)
  invoke void @_ZNK5QIconcv8QVariantEv(ptr dead_on_unwind nonnull writable sret(%class.QVariant) align 8 %3, ptr noundef nonnull align 8 dereferenceable(8) %7)
          to label %.noexc10 unwind label %39

.noexc10:                                         ; preds = %27
  %28 = load ptr, ptr %0, align 8
  %29 = getelementptr inbounds i8, ptr %28, i64 32
  %30 = load ptr, ptr %29, align 8
  invoke void %30(ptr noundef nonnull align 8 dereferenceable(60) %0, i32 noundef 0, i32 noundef 1, ptr noundef nonnull align 8 dereferenceable(16) %3)
          to label %33 unwind label %31

31:                                               ; preds = %.noexc10
  %32 = landingpad { ptr, i32 }
          cleanup
  call void @_ZN8QVariantD1Ev(ptr noundef nonnull align 8 dereferenceable(16) %3) #22
  br label %.body11

33:                                               ; preds = %.noexc10
  call void @_ZN8QVariantD1Ev(ptr noundef nonnull align 8 dereferenceable(16) %3) #22
  call void @llvm.lifetime.end.p0(i64 16, ptr nonnull %3)
  call void @_ZN5QIconD1Ev(ptr noundef nonnull align 8 dereferenceable(8) %7) #22
  %34 = load ptr, ptr %8, align 8
  %35 = load atomic i32, ptr %34 monotonic, align 4
  switch i32 %35, label %_ZN9QtPrivate8RefCount5derefEv.exit.i15 [
    i32 0, label %_ZN7QStringD2Ev.exit.sink.split
    i32 -1, label %_ZN7QStringD2Ev.exit
  ]

_ZN9QtPrivate8RefCount5derefEv.exit.i15:          ; preds = %33
  %36 = atomicrmw sub ptr %34, i32 1 seq_cst, align 4
  %.not.i16 = icmp eq i32 %36, 1
  br i1 %.not.i16, label %_ZN9QtPrivate8RefCount5derefEv.exit._ZN9QtPrivate8RefCount5derefEv.exit.thread2_crit_edge.i17, label %_ZN7QStringD2Ev.exit

_ZN9QtPrivate8RefCount5derefEv.exit._ZN9QtPrivate8RefCount5derefEv.exit.thread2_crit_edge.i17: ; preds = %_ZN9QtPrivate8RefCount5derefEv.exit.i15
  %.pre.i18 = load ptr, ptr %8, align 8
  br label %_ZN7QStringD2Ev.exit.sink.split

37:                                               ; preds = %25
  %38 = landingpad { ptr, i32 }
          cleanup
  br label %41

39:                                               ; preds = %27
  %40 = landingpad { ptr, i32 }
          cleanup
  br label %.body11

.body11:                                          ; preds = %31, %39
  %eh.lpad-body12 = phi { ptr, i32 } [ %40, %39 ], [ %32, %31 ]
  call void @_ZN5QIconD1Ev(ptr noundef nonnull align 8 dereferenceable(8) %7) #22
  br label %41

_ZN7QStringD2Ev.exit.sink.split:                  ; preds = %33, %_ZN9QtPrivate8RefCount5derefEv.exit._ZN9QtPrivate8RefCount5derefEv.exit.thread2_crit_edge.i17, %17, %_ZN9QtPrivate8RefCount5derefEv.exit._ZN9QtPrivate8RefCount5derefEv.exit.thread2_crit_edge.i
  %.sink = phi ptr [ %.pre.i, %_ZN9QtPrivate8RefCount5derefEv.exit._ZN9QtPrivate8RefCount5derefEv.exit.thread2_crit_edge.i ], [ %18, %17 ], [ %.pre.i18, %_ZN9QtPrivate8RefCount5derefEv.exit._ZN9QtPrivate8RefCount5derefEv.exit.thread2_crit_edge.i17 ], [ %34, %33 ]
  call void @_ZN10QArrayData10deallocateEPS_mm(ptr noundef %.sink, i64 noundef 2, i64 noundef 8) #22
  br label %_ZN7QStringD2Ev.exit

_ZN7QStringD2Ev.exit:                             ; preds = %_ZN7QStringD2Ev.exit.sink.split, %_ZN9QtPrivate8RefCount5derefEv.exit.i15, %33, %_ZN9QtPrivate8RefCount5derefEv.exit.i, %17
  ret void

41:                                               ; preds = %37, %.body11, %21, %.body
  %.sink20 = phi ptr [ %6, %.body ], [ %6, %21 ], [ %8, %.body11 ], [ %8, %37 ]
  %.pn7.pn = phi { ptr, i32 } [ %eh.lpad-body, %.body ], [ %22, %21 ], [ %eh.lpad-body12, %.body11 ], [ %38, %37 ]
  call void @_ZN7QStringD2Ev(ptr noundef nonnull align 8 dereferenceable(8) %.sink20) #22
  resume { ptr, i32 } %.pn7.pn
}